target datalayout = "e-m:e-p270:32:32-p271:32:32-p272:64:64-i64:64-i128:128-f80:128-n8:16:32:64-S128"
target triple = "x86_64-pc-linux-gnu"

%struct.H5T_conv_struct_t = type { ptr, ptr, ptr, ptr, ptr, ptr, %struct.H5T_subset_info_t, i32 }
%struct.H5T_subset_info_t = type { i32, i64 }

@H5T_init_g = external global i8, align 1
@H5_libterm_g = external global i8, align 1

; Function Attrs: nounwind uwtable
define internal i32 @H5T__conv_struct_free(ptr noundef %0) #0 {
  %2 = alloca ptr, align 8
  %3 = alloca ptr, align 8
  %4 = alloca ptr, align 8
  %5 = alloca ptr, align 8
  %6 = alloca ptr, align 8
  %7 = alloca ptr, align 8
  %8 = alloca i32, align 4
  %9 = alloca i32, align 4
  store ptr %0, ptr %2, align 8, !tbaa !8
  call void @llvm.lifetime.start.p0(i64 8, ptr %3) #9
  %10 = load ptr, ptr %2, align 8, !tbaa !8
  %11 = getelementptr inbounds nuw %struct.H5T_conv_struct_t, ptr %10, i32 0, i32 0
  %12 = load ptr, ptr %11, align 8, !tbaa !46
  store ptr %12, ptr %3, align 8, !tbaa !26
  call void @llvm.lifetime.start.p0(i64 8, ptr %4) #9
  %13 = load ptr, ptr %2, align 8, !tbaa !8
  %14 = getelementptr inbounds nuw %struct.H5T_conv_struct_t, ptr %13, i32 0, i32 1
  %15 = load ptr, ptr %14, align 8, !tbaa !60
  store ptr %15, ptr %4, align 8, !tbaa !85
  call void @llvm.lifetime.start.p0(i64 8, ptr %5) #9
  %16 = load ptr, ptr %2, align 8, !tbaa !8
  %17 = getelementptr inbounds nuw %struct.H5T_conv_struct_t, ptr %16, i32 0, i32 2
  %18 = load ptr, ptr %17, align 8, !tbaa !61
  store ptr %18, ptr %5, align 8, !tbaa !85
  call void @llvm.lifetime.start.p0(i64 8, ptr %6) #9
  %19 = load ptr, ptr %2, align 8, !tbaa !8
  %20 = getelementptr inbounds nuw %struct.H5T_conv_struct_t, ptr %19, i32 0, i32 3
  %21 = load ptr, ptr %20, align 8, !tbaa !55
  store ptr %21, ptr %6, align 8, !tbaa !86
  call void @llvm.lifetime.start.p0(i64 8, ptr %7) #9
  %22 = load ptr, ptr %2, align 8, !tbaa !8
  %23 = getelementptr inbounds nuw %struct.H5T_conv_struct_t, ptr %22, i32 0, i32 4
  %24 = load ptr, ptr %23, align 8, !tbaa !56
  store ptr %24, ptr %7, align 8, !tbaa !86
  call void @llvm.lifetime.start.p0(i64 4, ptr %8) #9
  store i32 0, ptr %8, align 4, !tbaa !30
  %25 = load i8, ptr @H5T_init_g, align 1, !tbaa !10, !range !12, !noundef !13
  %26 = trunc i8 %25 to i1
  br i1 %26, label %31, label %27

27:                                               ; preds = %1
  %28 = load i8, ptr @H5_libterm_g, align 1, !tbaa !10, !range !12, !noundef !13
  %29 = trunc i8 %28 to i1
  %30 = xor i1 %29, true
  br label %31

31:                                               ; preds = %27, %1
  %32 = phi i1 [ true, %1 ], [ %30, %27 ]
  %33 = xor i1 %32, true
  %34 = xor i1 %33, true
  %35 = zext i1 %34 to i32
  %36 = sext i32 %35 to i64
  %37 = call i64 @llvm.expect.i64(i64 %36, i64 1)
  %38 = icmp ne i64 %37, 0
  br i1 %38, label %39, label %178

39:                                               ; preds = %31
  call void @llvm.lifetime.start.p0(i64 4, ptr %9) #9
  store i32 0, ptr %9, align 4, !tbaa !30
  br label %40

40:                                               ; preds = %158, %39
  %41 = load i32, ptr %9, align 4, !tbaa !30
  %42 = load ptr, ptr %2, align 8, !tbaa !8
  %43 = getelementptr inbounds nuw %struct.H5T_conv_struct_t, ptr %42, i32 0, i32 7
  %44 = load i32, ptr %43, align 8, !tbaa !70
  %45 = icmp ult i32 %41, %44
  br i1 %45, label %47, label %46

46:                                               ; preds = %40
  call void @llvm.lifetime.end.p0(i64 4, ptr %9) #9
  br label %161

47:                                               ; preds = %40
  %48 = load ptr, ptr %3, align 8, !tbaa !26
  %49 = load i32, ptr %9, align 4, !tbaa !30
  %50 = zext i32 %49 to i64
  %51 = getelementptr inbounds nuw i32, ptr %48, i64 %50
  %52 = load i32, ptr %51, align 4, !tbaa !30
  %53 = icmp sge i32 %52, 0
  br i1 %53, label %54, label %157

54:                                               ; preds = %47
  %55 = load ptr, ptr %6, align 8, !tbaa !86
  %56 = load i32, ptr %9, align 4, !tbaa !30
  %57 = zext i32 %56 to i64
  %58 = getelementptr inbounds nuw i64, ptr %55, i64 %57
  %59 = load i64, ptr %58, align 8, !tbaa !21
  %60 = icmp sge i64 %59, 0
  br i1 %60, label %61, label %79

61:                                               ; preds = %54
  %62 = load ptr, ptr %6, align 8, !tbaa !86
  %63 = load i32, ptr %9, align 4, !tbaa !30
  %64 = zext i32 %63 to i64
  %65 = getelementptr inbounds nuw i64, ptr %62, i64 %64
  %66 = load i64, ptr %65, align 8, !tbaa !21
  %67 = call i32 @H5I_dec_ref(i64 noundef %66)
  %68 = icmp slt i32 %67, 0
  br i1 %68, label %69, label %70

69:                                               ; preds = %61
  store i32 -1, ptr %8, align 4, !tbaa !30
  br label %70

70:                                               ; preds = %69, %61
  %71 = load ptr, ptr %6, align 8, !tbaa !86
  %72 = load i32, ptr %9, align 4, !tbaa !30
  %73 = zext i32 %72 to i64
  %74 = getelementptr inbounds nuw i64, ptr %71, i64 %73
  store i64 -1, ptr %74, align 8, !tbaa !21
  %75 = load ptr, ptr %4, align 8, !tbaa !85
  %76 = load i32, ptr %9, align 4, !tbaa !30
  %77 = zext i32 %76 to i64
  %78 = getelementptr inbounds nuw ptr, ptr %75, i64 %77
  store ptr null, ptr %78, align 8, !tbaa !17
  br label %93

79:                                               ; preds = %54
  %80 = load ptr, ptr %4, align 8, !tbaa !85
  %81 = load i32, ptr %9, align 4, !tbaa !30
  %82 = zext i32 %81 to i64
  %83 = getelementptr inbounds nuw ptr, ptr %80, i64 %82
  %84 = load ptr, ptr %83, align 8, !tbaa !17
  %85 = call i32 @H5T_close(ptr noundef %84)
  %86 = icmp slt i32 %85, 0
  br i1 %86, label %87, label %88

87:                                               ; preds = %79
  store i32 -1, ptr %8, align 4, !tbaa !30
  br label %88

88:                                               ; preds = %87, %79
  %89 = load ptr, ptr %4, align 8, !tbaa !85
  %90 = load i32, ptr %9, align 4, !tbaa !30
  %91 = zext i32 %90 to i64
  %92 = getelementptr inbounds nuw ptr, ptr %89, i64 %91
  store ptr null, ptr %92, align 8, !tbaa !17
  br label %93

93:                                               ; preds = %88, %70
  %94 = load ptr, ptr %7, align 8, !tbaa !86
  %95 = load ptr, ptr %3, align 8, !tbaa !26
  %96 = load i32, ptr %9, align 4, !tbaa !30
  %97 = zext i32 %96 to i64
  %98 = getelementptr inbounds nuw i32, ptr %95, i64 %97
  %99 = load i32, ptr %98, align 4, !tbaa !30
  %100 = sext i32 %99 to i64
  %101 = getelementptr inbounds i64, ptr %94, i64 %100
  %102 = load i64, ptr %101, align 8, !tbaa !21
  %103 = icmp sge i64 %102, 0
  br i1 %103, label %104, label %134

104:                                              ; preds = %93
  %105 = load ptr, ptr %7, align 8, !tbaa !86
  %106 = load ptr, ptr %3, align 8, !tbaa !26
  %107 = load i32, ptr %9, align 4, !tbaa !30
  %108 = zext i32 %107 to i64
  %109 = getelementptr inbounds nuw i32, ptr %106, i64 %108
  %110 = load i32, ptr %109, align 4, !tbaa !30
  %111 = sext i32 %110 to i64
  %112 = getelementptr inbounds i64, ptr %105, i64 %111
  %113 = load i64, ptr %112, align 8, !tbaa !21
  %114 = call i32 @H5I_dec_ref(i64 noundef %113)
  %115 = icmp slt i32 %114, 0
  br i1 %115, label %116, label %117

116:                                              ; preds = %104
  store i32 -1, ptr %8, align 4, !tbaa !30
  br label %117

117:                                              ; preds = %116, %104
  %118 = load ptr, ptr %7, align 8, !tbaa !86
  %119 = load ptr, ptr %3, align 8, !tbaa !26
  %120 = load i32, ptr %9, align 4, !tbaa !30
  %121 = zext i32 %120 to i64
  %122 = getelementptr inbounds nuw i32, ptr %119, i64 %121
  %123 = load i32, ptr %122, align 4, !tbaa !30
  %124 = sext i32 %123 to i64
  %125 = getelementptr inbounds i64, ptr %118, i64 %124
  store i64 -1, ptr %125, align 8, !tbaa !21
  %126 = load ptr, ptr %5, align 8, !tbaa !85
  %127 = load ptr, ptr %3, align 8, !tbaa !26
  %128 = load i32, ptr %9, align 4, !tbaa !30
  %129 = zext i32 %128 to i64
  %130 = getelementptr inbounds nuw i32, ptr %127, i64 %129
  %131 = load i32, ptr %130, align 4, !tbaa !30
  %132 = sext i32 %131 to i64
  %133 = getelementptr inbounds ptr, ptr %126, i64 %132
  store ptr null, ptr %133, align 8, !tbaa !17
  br label %156

134:                                              ; preds = %93
  %135 = load ptr, ptr %5, align 8, !tbaa !85
  %136 = load ptr, ptr %3, align 8, !tbaa !26
  %137 = load i32, ptr %9, align 4, !tbaa !30
  %138 = zext i32 %137 to i64
  %139 = getelementptr inbounds nuw i32, ptr %136, i64 %138
  %140 = load i32, ptr %139, align 4, !tbaa !30
  %141 = sext i32 %140 to i64
  %142 = getelementptr inbounds ptr, ptr %135, i64 %141
  %143 = load ptr, ptr %142, align 8, !tbaa !17
  %144 = call i32 @H5T_close(ptr noundef %143)
  %145 = icmp slt i32 %144, 0
  br i1 %145, label %146, label %147

146:                                              ; preds = %134
  store i32 -1, ptr %8, align 4, !tbaa !30
  br label %147

147:                                              ; preds = %146, %134
  %148 = load ptr, ptr %5, align 8, !tbaa !85
  %149 = load ptr, ptr %3, align 8, !tbaa !26
  %150 = load i32, ptr %9, align 4, !tbaa !30
  %151 = zext i32 %150 to i64
  %152 = getelementptr inbounds nuw i32, ptr %149, i64 %151
  %153 = load i32, ptr %152, align 4, !tbaa !30
  %154 = sext i32 %153 to i64
  %155 = getelementptr inbounds ptr, ptr %148, i64 %154
  store ptr null, ptr %155, align 8, !tbaa !17
  br label %156

156:                                              ; preds = %147, %117
  br label %157

157:                                              ; preds = %156, %47
  br label %158

158:                                              ; preds = %157
  %159 = load i32, ptr %9, align 4, !tbaa !30
  %160 = add i32 %159, 1
  store i32 %160, ptr %9, align 4, !tbaa !30
  br label %40, !llvm.loop !87

161:                                              ; preds = %46
  %162 = load ptr, ptr %3, align 8, !tbaa !26
  %163 = call ptr @H5MM_xfree(ptr noundef %162)
  %164 = load ptr, ptr %4, align 8, !tbaa !85
  %165 = call ptr @H5MM_xfree(ptr noundef %164)
  %166 = load ptr, ptr %5, align 8, !tbaa !85
  %167 = call ptr @H5MM_xfree(ptr noundef %166)
  %168 = load ptr, ptr %6, align 8, !tbaa !86
  %169 = call ptr @H5MM_xfree(ptr noundef %168)
  %170 = load ptr, ptr %7, align 8, !tbaa !86
  %171 = call ptr @H5MM_xfree(ptr noundef %170)
  %172 = load ptr, ptr %2, align 8, !tbaa !8
  %173 = getelementptr inbounds nuw %struct.H5T_conv_struct_t, ptr %172, i32 0, i32 5
  %174 = load ptr, ptr %173, align 8, !tbaa !57
  %175 = call ptr @H5MM_xfree(ptr noundef %174)
  %176 = load ptr, ptr %2, align 8, !tbaa !8
  %177 = call ptr @H5MM_xfree(ptr noundef %176)
  br label %178

178:                                              ; preds = %161, %31
  %179 = load i32, ptr %8, align 4, !tbaa !30
  call void @llvm.lifetime.end.p0(i64 4, ptr %8) #9
  call void @llvm.lifetime.end.p0(i64 8, ptr %7) #9
  call void @llvm.lifetime.end.p0(i64 8, ptr %6) #9
  call void @llvm.lifetime.end.p0(i64 8, ptr %5) #9
  call void @llvm.lifetime.end.p0(i64 8, ptr %4) #9
  call void @llvm.lifetime.end.p0(i64 8, ptr %3) #9
  ret i32 %179
}