; Function Attrs: nounwind uwtable
define internal fastcc range(i32 -1, 1) i32 @H5T__conv_struct_free(ptr noundef %0) unnamed_addr #2 {
  %2 = load ptr, ptr %0, align 8, !tbaa !32
  %3 = getelementptr inbounds nuw i8, ptr %0, i64 8
  %4 = load ptr, ptr %3, align 8, !tbaa !49
  %5 = getelementptr inbounds nuw i8, ptr %0, i64 16
  %6 = load ptr, ptr %5, align 8, !tbaa !51
  %7 = getelementptr inbounds nuw i8, ptr %0, i64 24
  %8 = load ptr, ptr %7, align 8, !tbaa !44
  %9 = getelementptr inbounds nuw i8, ptr %0, i64 32
  %10 = load ptr, ptr %9, align 8, !tbaa !45
  %11 = load i8, ptr @H5T_init_g, align 1, !tbaa !3, !range !7, !noundef !8
  %12 = trunc nuw i8 %11 to i1
  %13 = load i8, ptr @H5_libterm_g, align 1, !range !7
  %14 = trunc nuw i8 %13 to i1
  %15 = xor i1 %14, true
  %16 = select i1 %12, i1 true, i1 %15
  br i1 %16, label %.preheader, label %64, !prof !9

.preheader:                                       ; preds = %1
  %17 = getelementptr inbounds nuw i8, ptr %0, i64 64
  %18 = load i32, ptr %17, align 8, !tbaa !58
  %.not = icmp eq i32 %18, 0
  br i1 %.not, label %._crit_edge, label %.lr.ph

._crit_edge:                                      ; preds = %60, %.preheader
  %.1.lcssa = phi i32 [ 0, %.preheader ], [ %.7, %60 ]
  %19 = tail call ptr @H5MM_xfree(ptr noundef %2) #9
  %20 = tail call ptr @H5MM_xfree(ptr noundef %4) #9
  %21 = tail call ptr @H5MM_xfree(ptr noundef %6) #9
  %22 = tail call ptr @H5MM_xfree(ptr noundef %8) #9
  %23 = tail call ptr @H5MM_xfree(ptr noundef %10) #9
  %24 = getelementptr inbounds nuw i8, ptr %0, i64 40
  %25 = load ptr, ptr %24, align 8, !tbaa !46
  %26 = tail call ptr @H5MM_xfree(ptr noundef %25) #9
  %27 = tail call ptr @H5MM_xfree(ptr noundef nonnull %0) #9
  br label %64

.lr.ph:                                           ; preds = %.preheader, %60
  %indvars.iv = phi i64 [ %indvars.iv.next, %60 ], [ 0, %.preheader ]
  %.156 = phi i32 [ %.7, %60 ], [ 0, %.preheader ]
  %28 = getelementptr inbounds nuw i32, ptr %2, i64 %indvars.iv
  %29 = load i32, ptr %28, align 4, !tbaa !40
  %30 = icmp sgt i32 %29, -1
  br i1 %30, label %31, label %60

31:                                               ; preds = %.lr.ph
  %32 = getelementptr inbounds nuw i64, ptr %8, i64 %indvars.iv
  %33 = load i64, ptr %32, align 8, !tbaa !15
  %34 = icmp sgt i64 %33, -1
  br i1 %34, label %35, label %38

35:                                               ; preds = %31
  %36 = tail call i32 @H5I_dec_ref(i64 noundef %33) #9
  %.inv53 = icmp sgt i32 %36, -1
  %spec.select = select i1 %.inv53, i32 %.156, i32 -1
  store i64 -1, ptr %32, align 8, !tbaa !15
  %37 = getelementptr inbounds nuw ptr, ptr %4, i64 %indvars.iv
  store ptr null, ptr %37, align 8, !tbaa !50
  br label %42

38:                                               ; preds = %31
  %39 = getelementptr inbounds nuw ptr, ptr %4, i64 %indvars.iv
  %40 = load ptr, ptr %39, align 8, !tbaa !50
  %41 = tail call i32 @H5T_close(ptr noundef %40) #9
  %.inv = icmp sgt i32 %41, -1
  %spec.select50 = select i1 %.inv, i32 %.156, i32 -1
  store ptr null, ptr %39, align 8, !tbaa !50
  br label %42

42:                                               ; preds = %38, %35
  %.3 = phi i32 [ %spec.select, %35 ], [ %spec.select50, %38 ]
  %43 = load i32, ptr %28, align 4, !tbaa !40
  %44 = sext i32 %43 to i64
  %45 = getelementptr inbounds i64, ptr %10, i64 %44
  %46 = load i64, ptr %45, align 8, !tbaa !15
  %47 = icmp sgt i64 %46, -1
  br i1 %47, label %48, label %53

48:                                               ; preds = %42
  %49 = tail call i32 @H5I_dec_ref(i64 noundef %46) #9
  %.inv55 = icmp sgt i32 %49, -1
  %spec.select51 = select i1 %.inv55, i32 %.3, i32 -1
  %50 = load i32, ptr %28, align 4, !tbaa !40
  %51 = sext i32 %50 to i64
  %52 = getelementptr inbounds i64, ptr %10, i64 %51
  store i64 -1, ptr %52, align 8, !tbaa !15
  br label %.sink.split

53:                                               ; preds = %42
  %54 = getelementptr inbounds ptr, ptr %6, i64 %44
  %55 = load ptr, ptr %54, align 8, !tbaa !50
  %56 = tail call i32 @H5T_close(ptr noundef %55) #9
  %.inv54 = icmp sgt i32 %56, -1
  %spec.select52 = select i1 %.inv54, i32 %.3, i32 -1
  %57 = load i32, ptr %28, align 4, !tbaa !40
  %58 = sext i32 %57 to i64
  br label %.sink.split

.sink.split:                                      ; preds = %48, %53
  %.sink59 = phi i64 [ %58, %53 ], [ %51, %48 ]
  %.7.ph = phi i32 [ %spec.select52, %53 ], [ %spec.select51, %48 ]
  %59 = getelementptr inbounds ptr, ptr %6, i64 %.sink59
  store ptr null, ptr %59, align 8, !tbaa !50
  br label %60

60:                                               ; preds = %.sink.split, %.lr.ph
  %.7 = phi i32 [ %.156, %.lr.ph ], [ %.7.ph, %.sink.split ]
  %indvars.iv.next = add nuw nsw i64 %indvars.iv, 1
  %61 = load i32, ptr %17, align 8, !tbaa !58
  %62 = zext i32 %61 to i64
  %63 = icmp samesign ult i64 %indvars.iv.next, %62
  br i1 %63, label %.lr.ph, label %._crit_edge, !llvm.loop !73

64:                                               ; preds = %._crit_edge, %1
  %.047 = phi i32 [ %.1.lcssa, %._crit_edge ], [ 0, %1 ]
  ret i32 %.047
}